#include <math.h>
#include <stdio.h>
#include <stdlib.h>
#include <string.h>

int main()
{
    int n,m,i,sz[100],sy[100];
	scanf("%d %d",&n,&m);
	for(i=0;i<n;i++)
	{
		scanf("%d",&sz[i]);
	}
	for(i=0;i<n;i++)
	{
		if(i>=m)
		{
		  sy[i]=sz[i-m];  
		}
		else
		{ 
		  sy[i]=sz[i+n-m]; 
		}
	}
	for(i=0;i<n-1;i++)
	{
		printf("%d ",sy[i]);
	}
	printf("%d",sy[n-1]);
	return 0;
}
