; ModuleID = 'source-C-CXX/51/3129.c'
source_filename = "source-C-CXX/51/3129.c"
target datalayout = "e-m:e-p270:32:32-p271:32:32-p272:64:64-i64:64-f80:128-n8:16:32:64-S128"
target triple = "x86_64-pc-linux-gnu"

@.str = private unnamed_addr constant [6 x i8] c"%d %d\00", align 1
@.str.1 = private unnamed_addr constant [3 x i8] c"%d\00", align 1
@.str.2 = private unnamed_addr constant [4 x i8] c"%d \00", align 1

; Function Attrs: nofree nounwind sspstrong uwtable
define dso_local i32 @main() local_unnamed_addr #0 {
  %1 = alloca i32, align 4
  %2 = alloca i32, align 4
  %3 = alloca [100 x i32], align 16
  %4 = alloca [100 x i32], align 16
  %5 = bitcast i32* %1 to i8*
  call void @llvm.lifetime.start.p0i8(i64 4, i8* nonnull %5) #3
  %6 = bitcast i32* %2 to i8*
  call void @llvm.lifetime.start.p0i8(i64 4, i8* nonnull %6) #3
  %7 = bitcast [100 x i32]* %3 to i8*
  call void @llvm.lifetime.start.p0i8(i64 400, i8* nonnull %7) #3
  %8 = bitcast [100 x i32]* %4 to i8*
  call void @llvm.lifetime.start.p0i8(i64 400, i8* nonnull %8) #3
  %9 = call i32 (i8*, ...) @__isoc99_scanf(i8* getelementptr inbounds ([6 x i8], [6 x i8]* @.str, i64 0, i64 0), i32* nonnull %1, i32* nonnull %2)
  %10 = load i32, i32* %1, align 4, !tbaa !5
  %11 = icmp sgt i32 %10, 0
  br i1 %11, label %22, label %45

12:                                               ; preds = %22
  %13 = load i32, i32* %2, align 4
  %14 = icmp sgt i32 %27, 0
  br i1 %14, label %15, label %45

15:                                               ; preds = %12
  %16 = sext i32 %13 to i64
  %17 = zext i32 %27 to i64
  %18 = and i64 %17, 1
  %19 = icmp eq i32 %27, 1
  br i1 %19, label %30, label %20

20:                                               ; preds = %15
  %21 = and i64 %17, 4294967294
  br label %49

22:                                               ; preds = %0, %22
  %23 = phi i64 [ %26, %22 ], [ 0, %0 ]
  %24 = getelementptr inbounds [100 x i32], [100 x i32]* %3, i64 0, i64 %23
  %25 = call i32 (i8*, ...) @__isoc99_scanf(i8* getelementptr inbounds ([3 x i8], [3 x i8]* @.str.1, i64 0, i64 0), i32* nonnull %24)
  %26 = add nuw nsw i64 %23, 1
  %27 = load i32, i32* %1, align 4, !tbaa !5
  %28 = sext i32 %27 to i64
  %29 = icmp slt i64 %26, %28
  br i1 %29, label %22, label %12, !llvm.loop !9

30:                                               ; preds = %49, %15
  %31 = phi i64 [ 0, %15 ], [ %71, %49 ]
  %32 = icmp eq i64 %18, 0
  br i1 %32, label %43, label %33

33:                                               ; preds = %30
  %34 = icmp slt i64 %31, %16
  %35 = trunc i64 %31 to i32
  %36 = select i1 %34, i32 %27, i32 0
  %37 = add nsw i32 %36, %35
  %38 = sub i32 %37, %13
  %39 = sext i32 %38 to i64
  %40 = getelementptr inbounds [100 x i32], [100 x i32]* %3, i64 0, i64 %39
  %41 = load i32, i32* %40, align 4, !tbaa !5
  %42 = getelementptr inbounds [100 x i32], [100 x i32]* %4, i64 0, i64 %31
  store i32 %41, i32* %42, align 4
  br label %43

43:                                               ; preds = %30, %33
  %44 = icmp sgt i32 %27, 1
  br i1 %44, label %74, label %45

45:                                               ; preds = %0, %12, %43
  %46 = phi i32 [ %27, %43 ], [ %27, %12 ], [ %10, %0 ]
  %47 = add nsw i32 %46, -1
  %48 = sext i32 %47 to i64
  br label %84

49:                                               ; preds = %49, %20
  %50 = phi i64 [ 0, %20 ], [ %71, %49 ]
  %51 = phi i64 [ %21, %20 ], [ %72, %49 ]
  %52 = icmp slt i64 %50, %16
  %53 = trunc i64 %50 to i32
  %54 = select i1 %52, i32 %27, i32 0
  %55 = add nsw i32 %54, %53
  %56 = sub i32 %55, %13
  %57 = sext i32 %56 to i64
  %58 = getelementptr inbounds [100 x i32], [100 x i32]* %3, i64 0, i64 %57
  %59 = load i32, i32* %58, align 4, !tbaa !5
  %60 = getelementptr inbounds [100 x i32], [100 x i32]* %4, i64 0, i64 %50
  store i32 %59, i32* %60, align 8
  %61 = or i64 %50, 1
  %62 = icmp slt i64 %61, %16
  %63 = trunc i64 %61 to i32
  %64 = select i1 %62, i32 %27, i32 0
  %65 = add nsw i32 %64, %63
  %66 = sub i32 %65, %13
  %67 = sext i32 %66 to i64
  %68 = getelementptr inbounds [100 x i32], [100 x i32]* %3, i64 0, i64 %67
  %69 = load i32, i32* %68, align 4, !tbaa !5
  %70 = getelementptr inbounds [100 x i32], [100 x i32]* %4, i64 0, i64 %61
  store i32 %69, i32* %70, align 4
  %71 = add nuw nsw i64 %50, 2
  %72 = add i64 %51, -2
  %73 = icmp eq i64 %72, 0
  br i1 %73, label %30, label %49, !llvm.loop !11

74:                                               ; preds = %43, %74
  %75 = phi i64 [ %79, %74 ], [ 0, %43 ]
  %76 = getelementptr inbounds [100 x i32], [100 x i32]* %4, i64 0, i64 %75
  %77 = load i32, i32* %76, align 4, !tbaa !5
  %78 = call i32 (i8*, ...) @printf(i8* nonnull dereferenceable(1) getelementptr inbounds ([4 x i8], [4 x i8]* @.str.2, i64 0, i64 0), i32 %77)
  %79 = add nuw nsw i64 %75, 1
  %80 = load i32, i32* %1, align 4, !tbaa !5
  %81 = add nsw i32 %80, -1
  %82 = sext i32 %81 to i64
  %83 = icmp slt i64 %79, %82
  br i1 %83, label %74, label %84, !llvm.loop !12

84:                                               ; preds = %74, %45
  %85 = phi i64 [ %48, %45 ], [ %82, %74 ]
  %86 = getelementptr inbounds [100 x i32], [100 x i32]* %4, i64 0, i64 %85
  %87 = load i32, i32* %86, align 4, !tbaa !5
  %88 = call i32 (i8*, ...) @printf(i8* nonnull dereferenceable(1) getelementptr inbounds ([3 x i8], [3 x i8]* @.str.1, i64 0, i64 0), i32 %87)
  call void @llvm.lifetime.end.p0i8(i64 400, i8* nonnull %8) #3
  call void @llvm.lifetime.end.p0i8(i64 400, i8* nonnull %7) #3
  call void @llvm.lifetime.end.p0i8(i64 4, i8* nonnull %6) #3
  call void @llvm.lifetime.end.p0i8(i64 4, i8* nonnull %5) #3
  ret i32 0
}

; Function Attrs: argmemonly mustprogress nofree nosync nounwind willreturn
declare void @llvm.lifetime.start.p0i8(i64 immarg, i8* nocapture) #1

; Function Attrs: nofree nounwind
declare noundef i32 @__isoc99_scanf(i8* nocapture noundef readonly, ...) local_unnamed_addr #2

; Function Attrs: nofree nounwind
declare noundef i32 @printf(i8* nocapture noundef readonly, ...) local_unnamed_addr #2

; Function Attrs: argmemonly mustprogress nofree nosync nounwind willreturn
declare void @llvm.lifetime.end.p0i8(i64 immarg, i8* nocapture) #1


!llvm.module.flags = !{!0, !1, !2, !3}
!llvm.ident = !{!4}

!0 = !{i32 1, !"wchar_size", i32 4}
!1 = !{i32 7, !"PIC Level", i32 2}
!2 = !{i32 7, !"PIE Level", i32 2}
!3 = !{i32 7, !"uwtable", i32 1}
!4 = !{!"clang version 13.0.0"}
!5 = !{!6, !6, i64 0}
!6 = !{!"int", !7, i64 0}
!7 = !{!"omnipotent char", !8, i64 0}
!8 = !{!"Simple C/C++ TBAA"}
!9 = distinct !{!9, !10}
!10 = !{!"llvm.loop.mustprogress"}
!11 = distinct !{!11, !10}
!12 = distinct !{!12, !10}
